Certificate:
    Data:
        Version: 3 (0x2)
        Serial Number:
            a0:81:be:2f:34:2f:d7:dd
        Signature Algorithm: sha1WithRSAEncryption
        Issuer: C=US, ST=California, O=Comcast, OU=Swirl, CN=Florian Drescher/emailAddress=fdrescher1@gmail.com
        Validity
            Not Before: Mar  8 04:11:32 2011 GMT
            Not After : Mar  7 04:11:32 2014 GMT
        Subject: C=US, ST=California, O=Comcast, OU=Swirl, CN=Florian Drescher/emailAddress=fdrescher1@gmail.com
        Subject Public Key Info:
            Public Key Algorithm: rsaEncryption
            RSA Public Key: (1024 bit)
                Modulus (1024 bit):
                    00:be:31:58:f3:21:b3:6f:06:9b:14:71:02:af:c4:
                    e7:52:9e:9b:3a:19:2f:ef:0a:aa:e8:f2:28:2f:45:
                    29:a1:ab:da:c7:12:3a:ec:80:8d:cc:d9:81:1e:48:
                    58:01:14:42:b5:89:7a:73:9e:64:f7:12:57:bb:5b:
                    53:2d:1a:94:00:c1:33:49:d4:3e:0c:ae:b3:3d:fb:
                    ee:63:cd:89:d3:e2:c3:c7:df:a4:21:17:75:24:8b:
                    b5:91:0e:59:0b:34:23:b8:a4:64:89:74:dc:00:c0:
                    14:c8:7f:dd:68:b7:92:1e:1d:71:6d:13:fd:57:08:
                    00:8e:e7:c1:7d:80:d6:28:79
                Exponent: 65537 (0x10001)
        X509v3 extensions:
            X509v3 Subject Key Identifier:
                F5:26:8D:ED:81:01:9C:2F:2F:D8:25:04:CD:1F:A0:7C:38:C6:F4:D7
            X509v3 Authority Key Identifier:
                keyid:F5:26:8D:ED:81:01:9C:2F:2F:D8:25:04:CD:1F:A0:7C:38:C6:F4:D7
                DirName:/C=US/ST=California/O=Comcast/OU=Swirl/CN=Florian Drescher/emailAddress=fdrescher1@gmail.com
                serial:A0:81:BE:2F:34:2F:D7:DD

            X509v3 Basic Constraints:
                CA:TRUE
    Signature Algorithm: sha1WithRSAEncryption
        4d:f0:27:c5:fa:cd:ca:67:23:22:3d:b8:4a:c3:89:a1:39:d8:
        84:7e:72:b8:74:7d:b6:da:38:cf:51:4f:61:c3:33:51:6f:95:
        4b:58:e2:3e:fa:0c:6d:29:81:3d:5e:04:de:49:8f:3a:a9:1a:
        8a:af:d9:f8:81:bf:df:07:f3:c6:f3:96:d2:58:ee:d4:48:fb:
        ff:d0:74:ce:79:fe:62:35:63:7b:cc:e7:13:90:e2:8b:3d:2d:
        db:e0:87:d5:b5:04:1d:21:3e:3e:54:91:ae:77:47:d8:52:24:
        cd:23:32:48:a9:b7:9c:dd:a5:26:4e:1b:ff:40:9d:21:b9:4c:
        51:35
-----BEGIN CERTIFICATE-----
MIIDdTCCAt6gAwIBAgIJAKCBvi80L9fdMA0GCSqGSIb3DQEBBQUAMIGEMQswCQYD
VQQGEwJVUzETMBEGA1UECBMKQ2FsaWZvcm5pYTEQMA4GA1UEChMHQ29tY2FzdDEO
MAwGA1UECxMFU3dpcmwxGTAXBgNVBAMTEEZsb3JpYW4gRHJlc2NoZXIxIzAhBgkq
hkiG9w0BCQEWFGZkcmVzY2hlcjFAZ21haWwuY29tMB4XDTExMDMwODA0MTEzMloX
DTE0MDMwNzA0MTEzMlowgYQxCzAJBgNVBAYTAlVTMRMwEQYDVQQIEwpDYWxpZm9y
bmlhMRAwDgYDVQQKEwdDb21jYXN0MQ4wDAYDVQQLEwVTd2lybDEZMBcGA1UEAxMQ
RmxvcmlhbiBEcmVzY2hlcjEjMCEGCSqGSIb3DQEJARYUZmRyZXNjaGVyMUBnbWFp
bC5jb20wgZ8wDQYJKoZIhvcNAQEBBQADgY0AMIGJAoGBAL4xWPMhs28GmxRxAq/E
51KemzoZL+8KqujyKC9FKaGr2scSOuyAjczZgR5IWAEUQrWJenOeZPcSV7tbUy0a
lADBM0nUPgyusz377mPNidPiw8ffpCEXdSSLtZEOWQs0I7ikZIl03ADAFMh/3Wi3
kh4dcW0T/VcIAI7nwX2A1ih5AgMBAAGjgewwgekwHQYDVR0OBBYEFPUmje2BAZwv
L9glBM0foHw4xvTXMIG5BgNVHSMEgbEwga6AFPUmje2BAZwvL9glBM0foHw4xvTX
oYGKpIGHMIGEMQswCQYDVQQGEwJVUzETMBEGA1UECBMKQ2FsaWZvcm5pYTEQMA4G
A1UEChMHQ29tY2FzdDEOMAwGA1UECxMFU3dpcmwxGTAXBgNVBAMTEEZsb3JpYW4g
RHJlc2NoZXIxIzAhBgkqhkiG9w0BCQEWFGZkcmVzY2hlcjFAZ21haWwuY29tggkA
oIG+LzQv190wDAYDVR0TBAUwAwEB/zANBgkqhkiG9w0BAQUFAAOBgQBN8CfF+s3K
ZyMiPbhKw4mhOdiEfnK4dH222jjPUU9hwzNRb5VLWOI++gxtKYE9XgTeSY86qRqK
r9n4gb/fB/PG85bSWO7USPv/0HTOef5iNWN7zOcTkOKLPS3b4IfVtQQdIT4+VJGu
d0fYUiTNIzJIqbec3aUmThv/QJ0huUxRNQ==
-----END CERTIFICATE-----
-----BEGIN CERTIFICATE-----
MIIDNjCCAp+gAwIBAgIQNhIilsXjOKUgodJfTNcJVDANBgkqhkiG9w0BAQUFADCB
zjELMAkGA1UEBhMCWkExFTATBgNVBAgTDFdlc3Rlcm4gQ2FwZTESMBAGA1UEBxMJ
Q2FwZSBUb3duMR0wGwYDVQQKExRUaGF3dGUgQ29uc3VsdGluZyBjYzEoMCYGA1UE
CxMfQ2VydGlmaWNhdGlvbiBTZXJ2aWNlcyBEaXZpc2lvbjEhMB8GA1UEAxMYVGhh
d3RlIFByZW1pdW0gU2VydmVyIENBMSgwJgYJKoZIhvcNAQkBFhlwcmVtaXVtLXNl
cnZlckB0aGF3dGUuY29tMB4XDTk2MDgwMTAwMDAwMFoXDTIxMDEwMTIzNTk1OVow
gc4xCzAJBgNVBAYTAlpBMRUwEwYDVQQIEwxXZXN0ZXJuIENhcGUxEjAQBgNVBAcT
CUNhcGUgVG93bjEdMBsGA1UEChMUVGhhd3RlIENvbnN1bHRpbmcgY2MxKDAmBgNV
BAsTH0NlcnRpZmljYXRpb24gU2VydmljZXMgRGl2aXNpb24xITAfBgNVBAMTGFRo
YXd0ZSBQcmVtaXVtIFNlcnZlciBDQTEoMCYGCSqGSIb3DQEJARYZcHJlbWl1bS1z
ZXJ2ZXJAdGhhd3RlLmNvbTCBnzANBgkqhkiG9w0BAQEFAAOBjQAwgYkCgYEA0jY2
aovXwlue2oFBYo847kkEVdbQ7xwblRZH7xhINTpS9CtqBo87L+pW46+GjZ4X9560
ZXUCTe/LCaIhUdib0GfQug2SBhRz1JPLlyoAnFxODLz6FVL88kRu2hFKbgifLy3j
+ao6hnO2RlNYyIkFvYMRuHM/qgeN9EJN50CdHDcCAwEAAaMTMBEwDwYDVR0TAQH/
BAUwAwEB/zANBgkqhkiG9w0BAQUFAAOBgQBlkKyID1bZ5jA01CbH0FDxkt5r1DmI
CSLGpmODA/eZd9iy5Ri4XWPz1HP7bJyZePFLeH0ZJMMrAoT4vCLZiiLXoPxx7JGH
IPG47LHlVYCsPVLIOQ7C8MAFT9aCdYy9X9LcdpoFEsmvcsPcJX6kTY4XpeCHf+Ga
WuFg3GQjPEIuTQ==
-----END CERTIFICATE-----
-----BEGIN CERTIFICATE-----
MIIDIDCCAomgAwIBAgIENd70zzANBgkqhkiG9w0BAQUFADBOMQswCQYDVQQGEwJV
UzEQMA4GA1UEChMHRXF1aWZheDEtMCsGA1UECxMkRXF1aWZheCBTZWN1cmUgQ2Vy
dGlmaWNhdGUgQXV0aG9yaXR5MB4XDTk4MDgyMjE2NDE1MVoXDTE4MDgyMjE2NDE1
MVowTjELMAkGA1UEBhMCVVMxEDAOBgNVBAoTB0VxdWlmYXgxLTArBgNVBAsTJEVx
dWlmYXggU2VjdXJlIENlcnRpZmljYXRlIEF1dGhvcml0eTCBnzANBgkqhkiG9w0B
AQEFAAOBjQAwgYkCgYEAwV2xWGcIYu6gmi0fCG2RFGiYCh7+2gRvE4RiIcPRfM6f
BeC4AfBONOziipUEZKzxa1NfBbPLZ4C/QgKO/t0BCezhABRP/PvwDN1Dulsr4R+A
cJkVV5MW8Q+XarfCaCMczE1ZMKxRHjuvK9buY0V7xdlfUNLjUA86iOe/FP3gx7kC
AwEAAaOCAQkwggEFMHAGA1UdHwRpMGcwZaBjoGGkXzBdMQswCQYDVQQGEwJVUzEQ
MA4GA1UEChMHRXF1aWZheDEtMCsGA1UECxMkRXF1aWZheCBTZWN1cmUgQ2VydGlm
aWNhdGUgQXV0aG9yaXR5MQ0wCwYDVQQDEwRDUkwxMBoGA1UdEAQTMBGBDzIwMTgw
ODIyMTY0MTUxWjALBgNVHQ8EBAMCAQYwHwYDVR0jBBgwFoAUSOZo+SvSspXXR9gj
IBBPM5iQn9QwHQYDVR0OBBYEFEjmaPkr0rKV10fYIyAQTzOYkJ/UMAwGA1UdEwQF
MAMBAf8wGgYJKoZIhvZ9B0EABA0wCxsFVjMuMGMDAgbAMA0GCSqGSIb3DQEBBQUA
A4GBAFjOKer89961zgK5F7WF0bnj4JXMJTENAKaSbn+2kmOeUJXRmm/kEd5jhW6Y
7qj/WsjTVbJmcVfewCHrPSqnI0kBBIZCe/zuf6IWUrVnZ9NA2zsmWLIodz2uFHdh
1voqZiegDfqnc1zqcPGUIWVEX/r87yloqaKHee9570+sB3c4
-----END CERTIFICATE-----
