Certificate:
    Data:
        Version: 3 (0x2)
        Serial Number:
            a0:81:be:2f:34:2f:d7:de
        Signature Algorithm: sha1WithRSAEncryption
        Issuer: C=US, ST=California, O=Comcast, OU=Swirl, CN=Florian Drescher/emailAddress=fdrescher1@gmail.com
        Validity
            Not Before: Mar  8 04:16:18 2011 GMT
            Not After : Mar  7 04:16:18 2012 GMT
        Subject: C=US, ST=California, O=Comcast, CN=swirl.com/emailAddress=fdrescher1@gmail.com
        Subject Public Key Info:
            Public Key Algorithm: rsaEncryption
            RSA Public Key: (1024 bit)
                Modulus (1024 bit):
                    00:b7:bc:4c:3c:c5:08:bf:5a:27:28:d7:21:af:35:
                    f6:02:15:02:29:b3:0b:41:20:5e:b7:fa:a3:29:ac:
                    c8:e6:0b:7c:70:ba:da:f1:28:10:90:5e:e1:dc:03:
                    a8:55:19:a7:20:b8:5e:83:34:6f:06:dc:89:bd:69:
                    4d:98:de:b0:2b:8e:4e:f0:d1:86:c9:94:43:a8:a2:
                    1a:6d:a9:f0:be:07:25:bb:d9:b0:e2:82:75:7e:9e:
                    67:0f:d2:52:2b:b9:27:fd:da:52:93:a9:bb:82:9a:
                    4e:0e:98:aa:90:17:02:44:01:87:2e:78:84:bb:0a:
                    52:c8:37:28:2d:9c:ee:6a:5b
                Exponent: 65537 (0x10001)
        X509v3 extensions:
            X509v3 Basic Constraints:
                CA:FALSE
            Netscape Comment:
                OpenSSL Generated Certificate
            X509v3 Subject Key Identifier:
                77:57:78:EB:D4:68:01:D3:DE:E6:C5:90:B8:64:48:88:2B:AF:A6:4C
            X509v3 Authority Key Identifier:
                keyid:F5:26:8D:ED:81:01:9C:2F:2F:D8:25:04:CD:1F:A0:7C:38:C6:F4:D7

    Signature Algorithm: sha1WithRSAEncryption
        9d:69:9a:a1:cd:bc:80:68:ec:8c:8d:19:26:37:99:31:b7:5f:
        a6:0e:d9:e1:2c:cb:94:3c:0e:06:a5:a2:5f:b3:d0:27:f4:69:
        45:cb:be:65:18:35:3d:b4:ec:41:fb:43:14:ee:d3:c2:b5:17:
        5d:5b:03:37:67:00:77:90:45:0c:7f:27:cb:3a:0d:76:6f:96:
        8f:c7:09:42:2a:e2:f7:8c:49:58:47:3d:77:fe:08:62:c6:c4:
        34:57:1c:47:01:d3:ee:ca:05:4f:b6:c8:48:0c:e2:58:5a:09:
        62:cd:09:cc:fc:d0:64:f1:ac:da:87:6d:03:4b:ef:66:5a:14:
        5c:77
-----BEGIN CERTIFICATE-----
MIIC6zCCAlSgAwIBAgIJAKCBvi80L9feMA0GCSqGSIb3DQEBBQUAMIGEMQswCQYD
VQQGEwJVUzETMBEGA1UECBMKQ2FsaWZvcm5pYTEQMA4GA1UEChMHQ29tY2FzdDEO
MAwGA1UECxMFU3dpcmwxGTAXBgNVBAMTEEZsb3JpYW4gRHJlc2NoZXIxIzAhBgkq
hkiG9w0BCQEWFGZkcmVzY2hlcjFAZ21haWwuY29tMB4XDTExMDMwODA0MTYxOFoX
DTEyMDMwNzA0MTYxOFowbTELMAkGA1UEBhMCVVMxEzARBgNVBAgTCkNhbGlmb3Ju
aWExEDAOBgNVBAoTB0NvbWNhc3QxEjAQBgNVBAMTCXN3aXJsLmNvbTEjMCEGCSqG
SIb3DQEJARYUZmRyZXNjaGVyMUBnbWFpbC5jb20wgZ8wDQYJKoZIhvcNAQEBBQAD
gY0AMIGJAoGBALe8TDzFCL9aJyjXIa819gIVAimzC0EgXrf6oymsyOYLfHC62vEo
EJBe4dwDqFUZpyC4XoM0bwbcib1pTZjesCuOTvDRhsmUQ6iiGm2p8L4HJbvZsOKC
dX6eZw/SUiu5J/3aUpOpu4KaTg6YqpAXAkQBhy54hLsKUsg3KC2c7mpbAgMBAAGj
ezB5MAkGA1UdEwQCMAAwLAYJYIZIAYb4QgENBB8WHU9wZW5TU0wgR2VuZXJhdGVk
IENlcnRpZmljYXRlMB0GA1UdDgQWBBR3V3jr1GgB097mxZC4ZEiIK6+mTDAfBgNV
HSMEGDAWgBT1Jo3tgQGcLy/YJQTNH6B8OMb01zANBgkqhkiG9w0BAQUFAAOBgQCd
aZqhzbyAaOyMjRkmN5kxt1+mDtnhLMuUPA4GpaJfs9An9GlFy75lGDU9tOxB+0MU
7tPCtRddWwM3ZwB3kEUMfyfLOg12b5aPxwlCKuL3jElYRz13/ghixsQ0VxxHAdPu
ygVPtshIDOJYWglizQnM/NBk8azah20DS+9mWhRcdw==
-----END CERTIFICATE-----
